; ModuleID = '50/453.c'
source_filename = "50/453.c"
target datalayout = "e-m:e-p270:32:32-p271:32:32-p272:64:64-i64:64-f80:128-n8:16:32:64-S128"
target triple = "x86_64-pc-linux-gnu"

@.str = private unnamed_addr constant [3 x i8] c"%d\00", align 1
@.str.1 = private unnamed_addr constant [4 x i8] c"%d\0A\00", align 1

; Function Attrs: noinline nounwind uwtable
define dso_local i32 @main() #0 {
  %1 = alloca i32, align 4
  %2 = alloca i32, align 4
  %3 = alloca [12 x i32], align 16
  %4 = alloca i32, align 4
  %5 = alloca i32, align 4
  store i32 0, i32* %1, align 4
  %6 = getelementptr inbounds [12 x i32], [12 x i32]* %3, i64 0, i64 1
  store i32 12, i32* %6, align 4
  %7 = getelementptr inbounds [12 x i32], [12 x i32]* %3, i64 0, i64 2
  store i32 43, i32* %7, align 8
  %8 = getelementptr inbounds [12 x i32], [12 x i32]* %3, i64 0, i64 3
  store i32 71, i32* %8, align 4
  %9 = getelementptr inbounds [12 x i32], [12 x i32]* %3, i64 0, i64 4
  store i32 102, i32* %9, align 16
  %10 = getelementptr inbounds [12 x i32], [12 x i32]* %3, i64 0, i64 5
  store i32 132, i32* %10, align 4
  %11 = getelementptr inbounds [12 x i32], [12 x i32]* %3, i64 0, i64 6
  store i32 163, i32* %11, align 8
  %12 = getelementptr inbounds [12 x i32], [12 x i32]* %3, i64 0, i64 7
  store i32 193, i32* %12, align 4
  %13 = getelementptr inbounds [12 x i32], [12 x i32]* %3, i64 0, i64 8
  store i32 224, i32* %13, align 16
  %14 = getelementptr inbounds [12 x i32], [12 x i32]* %3, i64 0, i64 9
  store i32 255, i32* %14, align 4
  %15 = getelementptr inbounds [12 x i32], [12 x i32]* %3, i64 0, i64 10
  store i32 285, i32* %15, align 8
  %16 = getelementptr inbounds [12 x i32], [12 x i32]* %3, i64 0, i64 11
  store i32 316, i32* %16, align 4
  %17 = getelementptr inbounds [12 x i32], [12 x i32]* %3, i64 0, i64 12
  store i32 346, i32* %17, align 16
  %18 = call i32 (i8*, ...) @__isoc99_scanf(i8* getelementptr inbounds ([3 x i8], [3 x i8]* @.str, i64 0, i64 0), i32* %2)
  store i32 1, i32* %4, align 4
  br label %19

19:                                               ; preds = %37, %0
  %20 = load i32, i32* %4, align 4
  %21 = icmp sle i32 %20, 12
  br i1 %21, label %22, label %40

22:                                               ; preds = %19
  %23 = load i32, i32* %4, align 4
  %24 = sext i32 %23 to i64
  %25 = getelementptr inbounds [12 x i32], [12 x i32]* %3, i64 0, i64 %24
  %26 = load i32, i32* %25, align 4
  %27 = sub nsw i32 %26, 7
  %28 = load i32, i32* %2, align 4
  %29 = add nsw i32 %27, %28
  %30 = srem i32 %29, 7
  store i32 %30, i32* %5, align 4
  %31 = load i32, i32* %5, align 4
  %32 = icmp eq i32 %31, 5
  br i1 %32, label %33, label %36

33:                                               ; preds = %22
  %34 = load i32, i32* %4, align 4
  %35 = call i32 (i8*, ...) @printf(i8* getelementptr inbounds ([4 x i8], [4 x i8]* @.str.1, i64 0, i64 0), i32 %34)
  br label %36

36:                                               ; preds = %33, %22
  br label %37

37:                                               ; preds = %36
  %38 = load i32, i32* %4, align 4
  %39 = add nsw i32 %38, 1
  store i32 %39, i32* %4, align 4
  br label %19

40:                                               ; preds = %19
  ret i32 0
}

declare dso_local i32 @__isoc99_scanf(i8*, ...) #1

declare dso_local i32 @printf(i8*, ...) #1


!llvm.module.flags = !{!0}
!llvm.ident = !{!1}

!0 = !{i32 1, !"wchar_size", i32 4}
!1 = !{!"clang version 10.0.0-4ubuntu1 "}
